target datalayout = "e-m:e-p270:32:32-p271:32:32-p272:64:64-i64:64-i128:128-f80:128-n8:16:32:64-S128"
target triple = "x86_64-pc-linux-gnu"

%struct.amqp_conv = type { i8, ptr }
%struct._packet_info = type { ptr, ptr, i32, i32, %struct.nstime_t, %struct.nstime_t, %struct.nstime_t, i8, ptr, ptr, ptr, ptr, %struct._address, %struct._address, %struct._address, %struct._address, %struct._address, %struct._address, i32, ptr, i8, [3 x i8], %struct.anon.1, i32, i32, i32, i32, ptr, i8, ptr, ptr, i16, i16, i32, i32, i16, i32, i32, ptr, ptr, ptr, i8, i8, i16, i16, i16, i32, i16, i16, ptr, ptr, ptr, ptr, ptr, i32, i32 }
%struct.nstime_t = type { i64, i32 }
%struct._address = type { i32, i32, ptr, ptr }
%struct.anon.1 = type { i8, [3 x i8] }
%struct._amqp_channel_t = type { ptr, i8, i16, i64, ptr, ptr, ptr }
%struct.amqp_delivery = type { i64, i32, i32, ptr }
%struct.tcp_analysis = type { %struct._tcp_flow_t, %struct._tcp_flow_t, ptr, ptr, ptr, ptr, %struct.nstime_t, %struct.nstime_t, %struct.nstime_t, %struct.nstime_t, i32, i32, i16, i8, i8, ptr, i8, ptr, i8, i8, i8 }
%struct._tcp_flow_t = type { i8, i32, i32, i32, i16, i16, i8, i16, i8, i8, i8, ptr, i16, i32, i32, i16, ptr, ptr, ptr, ptr }

@proto_amqp = internal global i32 0, align 4

; Function Attrs: null_pointer_is_valid sspstrong uwtable
define internal void @record_msg_delivery_c(ptr noundef %0, ptr noundef %1, ptr noundef %2, ptr noundef %3, i64 noundef %4) #0 {
  %6 = alloca ptr, align 8
  %7 = alloca ptr, align 8
  %8 = alloca ptr, align 8
  %9 = alloca ptr, align 8
  %10 = alloca i64, align 8
  %11 = alloca ptr, align 8
  %12 = alloca ptr, align 8
  %13 = alloca ptr, align 8
  store ptr %0, ptr %6, align 8
  store ptr %1, ptr %7, align 8
  store ptr %2, ptr %8, align 8
  store ptr %3, ptr %9, align 8
  store i64 %4, ptr %10, align 8
  call void @llvm.lifetime.start.p0(i64 8, ptr %11) #11
  call void @llvm.lifetime.start.p0(i64 8, ptr %12) #11
  call void @llvm.lifetime.start.p0(i64 8, ptr %13) #11
  %14 = load ptr, ptr %6, align 8
  %15 = load ptr, ptr %9, align 8
  %16 = call ptr @get_tcp_conversation_data(ptr noundef %14, ptr noundef %15)
  store ptr %16, ptr %11, align 8
  %17 = load ptr, ptr %11, align 8
  %18 = getelementptr inbounds nuw %struct.tcp_analysis, ptr %17, i32 0, i32 2
  %19 = load ptr, ptr %18, align 8
  %20 = load ptr, ptr %11, align 8
  %21 = getelementptr inbounds nuw %struct.tcp_analysis, ptr %20, i32 0, i32 0
  %22 = icmp eq ptr %19, %21
  br i1 %22, label %23, label %26

23:                                               ; preds = %5
  %24 = load ptr, ptr %7, align 8
  %25 = getelementptr inbounds nuw %struct._amqp_channel_t, ptr %24, i32 0, i32 4
  br label %29

26:                                               ; preds = %5
  %27 = load ptr, ptr %7, align 8
  %28 = getelementptr inbounds nuw %struct._amqp_channel_t, ptr %27, i32 0, i32 5
  br label %29

29:                                               ; preds = %26, %23
  %30 = phi ptr [ %25, %23 ], [ %28, %26 ]
  store ptr %30, ptr %12, align 8
  %31 = call ptr @wmem_file_scope()
  %32 = call noalias ptr @wmem_alloc0(ptr noundef %31, i64 noundef 24) #13
  store ptr %32, ptr %13, align 8
  %33 = load i64, ptr %10, align 8
  %34 = load ptr, ptr %13, align 8
  %35 = getelementptr inbounds nuw %struct.amqp_delivery, ptr %34, i32 0, i32 0
  store i64 %33, ptr %35, align 8
  %36 = load ptr, ptr %9, align 8
  %37 = getelementptr inbounds nuw %struct._packet_info, ptr %36, i32 0, i32 3
  %38 = load i32, ptr %37, align 4
  %39 = load ptr, ptr %13, align 8
  %40 = getelementptr inbounds nuw %struct.amqp_delivery, ptr %39, i32 0, i32 1
  store i32 %38, ptr %40, align 8
  %41 = load ptr, ptr %12, align 8
  %42 = load ptr, ptr %41, align 8
  %43 = load ptr, ptr %13, align 8
  %44 = getelementptr inbounds nuw %struct.amqp_delivery, ptr %43, i32 0, i32 3
  store ptr %42, ptr %44, align 8
  %45 = load ptr, ptr %13, align 8
  %46 = load ptr, ptr %12, align 8
  store ptr %45, ptr %46, align 8
  %47 = load ptr, ptr %9, align 8
  %48 = getelementptr inbounds nuw %struct._packet_info, ptr %47, i32 0, i32 51
  %49 = load ptr, ptr %48, align 8
  %50 = load ptr, ptr %9, align 8
  %51 = load i32, ptr @proto_amqp, align 4
  %52 = load ptr, ptr %8, align 8
  %53 = call i32 @tvb_raw_offset(ptr noundef %52)
  %54 = load ptr, ptr %13, align 8
  call void @p_add_proto_data(ptr noundef %49, ptr noundef %50, i32 noundef %51, i32 noundef %53, ptr noundef %54)
  call void @llvm.lifetime.end.p0(i64 8, ptr %13) #11
  call void @llvm.lifetime.end.p0(i64 8, ptr %12) #11
  call void @llvm.lifetime.end.p0(i64 8, ptr %11) #11
  ret void
}

; Function Attrs: null_pointer_is_valid sspstrong uwtable
define internal ptr @get_conversation_channel(ptr noundef %0, i16 noundef zeroext %1) #0 {
  %3 = alloca ptr, align 8
  %4 = alloca ptr, align 8
  %5 = alloca i16, align 2
  %6 = alloca ptr, align 8
  %7 = alloca ptr, align 8
  %8 = alloca i32, align 4
  store ptr %0, ptr %4, align 8
  store i16 %1, ptr %5, align 2
  call void @llvm.lifetime.start.p0(i64 8, ptr %6) #11
  call void @llvm.lifetime.start.p0(i64 8, ptr %7) #11
  %9 = load ptr, ptr %4, align 8
  %10 = load i32, ptr @proto_amqp, align 4
  %11 = call ptr @conversation_get_proto_data(ptr noundef %9, i32 noundef %10)
  store ptr %11, ptr %6, align 8
  %12 = load ptr, ptr %6, align 8
  %13 = icmp ne ptr %12, null
  br i1 %13, label %15, label %14

14:                                               ; preds = %2
  store ptr null, ptr %3, align 8
  store i32 1, ptr %8, align 4
  br label %46

15:                                               ; preds = %2
  %16 = load ptr, ptr %6, align 8
  %17 = getelementptr inbounds nuw %struct.amqp_conv, ptr %16, i32 0, i32 1
  %18 = load ptr, ptr %17, align 8
  %19 = load i16, ptr %5, align 2
  %20 = zext i16 %19 to i32
  %21 = zext i32 %20 to i64
  %22 = inttoptr i64 %21 to ptr
  %23 = call ptr @wmem_map_lookup(ptr noundef %18, ptr noundef %22)
  store ptr %23, ptr %7, align 8
  %24 = load ptr, ptr %7, align 8
  %25 = icmp eq ptr %24, null
  br i1 %25, label %26, label %44

26:                                               ; preds = %15
  %27 = call ptr @wmem_file_scope()
  %28 = call noalias ptr @wmem_alloc0(ptr noundef %27, i64 noundef 48) #13
  store ptr %28, ptr %7, align 8
  %29 = load ptr, ptr %6, align 8
  %30 = load ptr, ptr %7, align 8
  %31 = getelementptr inbounds nuw %struct._amqp_channel_t, ptr %30, i32 0, i32 0
  store ptr %29, ptr %31, align 8
  %32 = load i16, ptr %5, align 2
  %33 = load ptr, ptr %7, align 8
  %34 = getelementptr inbounds nuw %struct._amqp_channel_t, ptr %33, i32 0, i32 2
  store i16 %32, ptr %34, align 2
  %35 = load ptr, ptr %6, align 8
  %36 = getelementptr inbounds nuw %struct.amqp_conv, ptr %35, i32 0, i32 1
  %37 = load ptr, ptr %36, align 8
  %38 = load i16, ptr %5, align 2
  %39 = zext i16 %38 to i32
  %40 = zext i32 %39 to i64
  %41 = inttoptr i64 %40 to ptr
  %42 = load ptr, ptr %7, align 8
  %43 = call ptr @wmem_map_insert(ptr noundef %37, ptr noundef %41, ptr noundef %42)
  br label %44

44:                                               ; preds = %26, %15
  %45 = load ptr, ptr %7, align 8
  store ptr %45, ptr %3, align 8
  store i32 1, ptr %8, align 4
  br label %46

46:                                               ; preds = %44, %14
  call void @llvm.lifetime.end.p0(i64 8, ptr %7) #11
  call void @llvm.lifetime.end.p0(i64 8, ptr %6) #11
  %47 = load ptr, ptr %3, align 8
  ret ptr %47
}

; Function Attrs: null_pointer_is_valid sspstrong uwtable
define internal void @record_msg_delivery(ptr noundef %0, ptr noundef %1, i16 noundef zeroext %2, i64 noundef %3) #0 {
  %5 = alloca ptr, align 8
  %6 = alloca ptr, align 8
  %7 = alloca i16, align 2
  %8 = alloca i64, align 8
  %9 = alloca ptr, align 8
  %10 = alloca ptr, align 8
  store ptr %0, ptr %5, align 8
  store ptr %1, ptr %6, align 8
  store i16 %2, ptr %7, align 2
  store i64 %3, ptr %8, align 8
  call void @llvm.lifetime.start.p0(i64 8, ptr %9) #11
  call void @llvm.lifetime.start.p0(i64 8, ptr %10) #11
  %11 = load ptr, ptr %6, align 8
  %12 = call ptr @find_or_create_conversation(ptr noundef %11)
  store ptr %12, ptr %9, align 8
  %13 = load ptr, ptr %9, align 8
  %14 = load i16, ptr %7, align 2
  %15 = call ptr @get_conversation_channel(ptr noundef %13, i16 noundef zeroext %14)
  store ptr %15, ptr %10, align 8
  %16 = load ptr, ptr %9, align 8
  %17 = load ptr, ptr %10, align 8
  %18 = load ptr, ptr %5, align 8
  %19 = load ptr, ptr %6, align 8
  %20 = load i64, ptr %8, align 8
  call void @record_msg_delivery_c(ptr noundef %16, ptr noundef %17, ptr noundef %18, ptr noundef %19, i64 noundef %20)
  call void @llvm.lifetime.end.p0(i64 8, ptr %10) #11
  call void @llvm.lifetime.end.p0(i64 8, ptr %9) #11
  ret void
}