; Function Attrs: null_pointer_is_valid sspstrong uwtable
define internal fastcc void @record_msg_delivery(ptr noundef %0, ptr noundef %1, i16 noundef zeroext %2, i64 noundef %3) unnamed_addr #0 {
  %5 = tail call ptr @find_or_create_conversation(ptr noundef %1)
  %6 = load i32, ptr @proto_amqp, align 4
  %7 = tail call ptr @conversation_get_proto_data(ptr noundef %5, i32 noundef %6)
  %.not.i = icmp eq ptr %7, null
  br i1 %.not.i, label %get_conversation_channel.exit, label %8

8:                                                ; preds = %4
  %9 = getelementptr inbounds nuw i8, ptr %7, i64 8
  %10 = load ptr, ptr %9, align 8
  %11 = zext i16 %2 to i64
  %12 = inttoptr i64 %11 to ptr
  %13 = tail call ptr @wmem_map_lookup(ptr noundef %10, ptr noundef %12)
  %14 = icmp eq ptr %13, null
  br i1 %14, label %15, label %get_conversation_channel.exit

15:                                               ; preds = %8
  %16 = tail call ptr @wmem_file_scope()
  %17 = tail call noalias dereferenceable_or_null(48) ptr @wmem_alloc0(ptr noundef %16, i64 noundef 48) #13
  store ptr %7, ptr %17, align 8
  %18 = getelementptr inbounds nuw i8, ptr %17, i64 10
  store i16 %2, ptr %18, align 2
  %19 = load ptr, ptr %9, align 8
  %20 = tail call ptr @wmem_map_insert(ptr noundef %19, ptr noundef %12, ptr noundef %17)
  br label %get_conversation_channel.exit

get_conversation_channel.exit:                    ; preds = %4, %8, %15
  %.013.i = phi ptr [ null, %4 ], [ %17, %15 ], [ %13, %8 ]
  %21 = tail call ptr @get_tcp_conversation_data(ptr noundef %5, ptr noundef %1)
  %22 = getelementptr inbounds nuw i8, ptr %21, i64 176
  %23 = load ptr, ptr %22, align 8
  %24 = icmp eq ptr %23, %21
  %.v.i = select i1 %24, i64 24, i64 32
  %25 = getelementptr inbounds nuw i8, ptr %.013.i, i64 %.v.i
  %26 = tail call ptr @wmem_file_scope()
  %27 = tail call noalias dereferenceable_or_null(24) ptr @wmem_alloc0(ptr noundef %26, i64 noundef 24) #13
  store i64 %3, ptr %27, align 8
  %28 = getelementptr inbounds nuw i8, ptr %1, i64 20
  %29 = load i32, ptr %28, align 4
  %30 = getelementptr inbounds nuw i8, ptr %27, i64 8
  store i32 %29, ptr %30, align 8
  %31 = load ptr, ptr %25, align 8
  %32 = getelementptr inbounds nuw i8, ptr %27, i64 16
  store ptr %31, ptr %32, align 8
  store ptr %27, ptr %25, align 8
  %33 = getelementptr inbounds nuw i8, ptr %1, i64 408
  %34 = load ptr, ptr %33, align 8
  %35 = load i32, ptr @proto_amqp, align 4
  %36 = tail call i32 @tvb_raw_offset(ptr noundef %0)
  tail call void @p_add_proto_data(ptr noundef %34, ptr noundef %1, i32 noundef %35, i32 noundef %36, ptr noundef %27)
  ret void
}